target datalayout = "e-m:e-p270:32:32-p271:32:32-p272:64:64-i64:64-i128:128-f80:128-n8:16:32:64-S128"
target triple = "x86_64-pc-linux-gnu"

%struct.archive_rb_tree_ops = type { ptr, ptr }
%struct.archive_read = type { %struct.archive, ptr, i32, i64, i64, %struct.archive_read_client, [16 x %struct.archive_read_filter_bidder], ptr, i32, i64, i32, i32, [16 x %struct.archive_format_descriptor], ptr, ptr, ptr, %struct.anon }
%struct.archive = type { i32, i32, ptr, i32, ptr, i32, i32, ptr, %struct.archive_string, ptr, i32, i32, ptr, ptr, i64, i64, i64, i8, i64 }
%struct.archive_string = type { ptr, i64, i64 }
%struct.archive_read_client = type { ptr, ptr, ptr, ptr, ptr, ptr, i32, i32, i64, ptr }
%struct.archive_read_filter_bidder = type { ptr, ptr, ptr }
%struct.archive_format_descriptor = type { ptr, ptr, ptr, ptr, ptr, ptr, ptr, ptr, ptr, ptr, ptr }
%struct.anon = type { ptr, ptr, i32, ptr, ptr }
%struct.mtree = type { %struct.archive_string, i64, ptr, i64, i32, i32, ptr, ptr, ptr, %struct.archive_rb_tree, %struct.archive_string, %struct.archive_string, ptr, %struct.archive_rb_tree, i64, i8 }
%struct.archive_rb_tree = type { ptr, ptr }

@archive_read_support_format_mtree.rb_ops = internal constant %struct.archive_rb_tree_ops { ptr @mtree_cmp_node, ptr @mtree_cmp_key }, align 8
@.str = private unnamed_addr constant [34 x i8] c"archive_read_support_format_mtree\00", align 1
@.str.1 = private unnamed_addr constant [26 x i8] c"Can't allocate mtree data\00", align 1
@.str.2 = private unnamed_addr constant [6 x i8] c"mtree\00", align 1

; Function Attrs: nounwind uwtable
define dso_local i32 @archive_read_support_format_mtree(ptr noundef %0) #0 {
  %2 = alloca i32, align 4
  %3 = alloca ptr, align 8
  %4 = alloca ptr, align 8
  %5 = alloca ptr, align 8
  %6 = alloca i32, align 4
  %7 = alloca i32, align 4
  store ptr %0, ptr %3, align 8
  %8 = load ptr, ptr %3, align 8
  store ptr %8, ptr %4, align 8
  br label %9

9:                                                ; preds = %1
  %10 = load ptr, ptr %3, align 8
  %11 = call i32 @__archive_check_magic(ptr noundef %10, i32 noundef 14594245, i32 noundef 1, ptr noundef @.str)
  store i32 %11, ptr %7, align 4
  %12 = load i32, ptr %7, align 4
  %13 = icmp eq i32 %12, -30
  br i1 %13, label %14, label %15

14:                                               ; preds = %9
  store i32 -30, ptr %2, align 4
  br label %38

15:                                               ; preds = %9
  br label %16

16:                                               ; preds = %15
  %17 = call noalias ptr @calloc(i64 noundef 1, i64 noundef 184) #9
  store ptr %17, ptr %5, align 8
  %18 = load ptr, ptr %5, align 8
  %19 = icmp eq ptr %18, null
  br i1 %19, label %20, label %23

20:                                               ; preds = %16
  %21 = load ptr, ptr %4, align 8
  %22 = getelementptr inbounds %struct.archive_read, ptr %21, i32 0, i32 0
  call void (ptr, i32, ptr, ...) @archive_set_error(ptr noundef %22, i32 noundef 12, ptr noundef @.str.1)
  store i32 -30, ptr %2, align 4
  br label %38

23:                                               ; preds = %16
  %24 = load ptr, ptr %5, align 8
  %25 = getelementptr inbounds %struct.mtree, ptr %24, i32 0, i32 15
  store i8 0, ptr %25, align 8
  %26 = load ptr, ptr %5, align 8
  %27 = getelementptr inbounds %struct.mtree, ptr %26, i32 0, i32 4
  store i32 -1, ptr %27, align 8
  %28 = load ptr, ptr %5, align 8
  %29 = getelementptr inbounds %struct.mtree, ptr %28, i32 0, i32 13
  call void @__archive_rb_tree_init(ptr noundef %29, ptr noundef @archive_read_support_format_mtree.rb_ops)
  %30 = load ptr, ptr %4, align 8
  %31 = load ptr, ptr %5, align 8
  %32 = call i32 @__archive_read_register_format(ptr noundef %30, ptr noundef %31, ptr noundef @.str.2, ptr noundef @mtree_bid, ptr noundef @archive_read_format_mtree_options, ptr noundef @read_header, ptr noundef @read_data, ptr noundef @skip, ptr noundef null, ptr noundef @cleanup, ptr noundef null, ptr noundef null)
  store i32 %32, ptr %6, align 4
  %33 = load i32, ptr %6, align 4
  %34 = icmp ne i32 %33, 0
  br i1 %34, label %35, label %37

35:                                               ; preds = %23
  %36 = load ptr, ptr %5, align 8
  call void @free(ptr noundef %36) #10
  br label %37

37:                                               ; preds = %35, %23
  store i32 0, ptr %2, align 4
  br label %38

38:                                               ; preds = %37, %20, %14
  %39 = load i32, ptr %2, align 4
  ret i32 %39
}