; Function Attrs: nounwind uwtable
define dso_local range(i32 -30, 1) i32 @archive_read_support_format_mtree(ptr noundef %0) local_unnamed_addr #0 {
  %2 = tail call i32 @__archive_check_magic(ptr noundef %0, i32 noundef 14594245, i32 noundef 1, ptr noundef nonnull @.str) #19
  %3 = icmp eq i32 %2, -30
  br i1 %3, label %13, label %4

4:                                                ; preds = %1
  %5 = tail call noalias dereferenceable_or_null(184) ptr @calloc(i64 noundef 1, i64 noundef 184) #20
  %6 = icmp eq ptr %5, null
  br i1 %6, label %7, label %8

7:                                                ; preds = %4
  tail call void (ptr, i32, ptr, ...) @archive_set_error(ptr noundef %0, i32 noundef 12, ptr noundef nonnull @.str.1) #19
  br label %13

8:                                                ; preds = %4
  %9 = getelementptr inbounds nuw i8, ptr %5, i64 48
  store i32 -1, ptr %9, align 8
  %10 = getelementptr inbounds nuw i8, ptr %5, i64 152
  tail call void @__archive_rb_tree_init(ptr noundef nonnull %10, ptr noundef nonnull @archive_read_support_format_mtree.rb_ops) #19
  %11 = tail call i32 @__archive_read_register_format(ptr noundef %0, ptr noundef nonnull %5, ptr noundef nonnull @.str.2, ptr noundef nonnull @mtree_bid, ptr noundef nonnull @archive_read_format_mtree_options, ptr noundef nonnull @read_header, ptr noundef nonnull @read_data, ptr noundef nonnull @skip, ptr noundef null, ptr noundef nonnull @cleanup, ptr noundef null, ptr noundef null) #19
  %.not = icmp eq i32 %11, 0
  br i1 %.not, label %13, label %12

12:                                               ; preds = %8
  tail call void @free(ptr noundef nonnull %5) #19
  br label %13

13:                                               ; preds = %8, %12, %1, %7
  %.0 = phi i32 [ -30, %7 ], [ -30, %1 ], [ 0, %12 ], [ 0, %8 ]
  ret i32 %.0
}